; ModuleID = '55/568.c'
source_filename = "55/568.c"
target datalayout = "e-m:e-p270:32:32-p271:32:32-p272:64:64-i64:64-f80:128-n8:16:32:64-S128"
target triple = "x86_64-pc-linux-gnu"

@.str = private unnamed_addr constant [7 x i8] c"%d%s%d\00", align 1
@.str.1 = private unnamed_addr constant [3 x i8] c"%c\00", align 1
@.str.2 = private unnamed_addr constant [2 x i8] c"\0A\00", align 1

; Function Attrs: noinline nounwind uwtable
define dso_local i32 @main() #0 {
  %1 = alloca i32, align 4
  %2 = alloca [100 x i8], align 16
  %3 = alloca [100 x i8], align 16
  %4 = alloca i32, align 4
  %5 = alloca i32, align 4
  %6 = alloca [100 x i32], align 16
  %7 = alloca i32, align 4
  %8 = alloca i32, align 4
  %9 = alloca i32, align 4
  %10 = alloca i64, align 8
  store i32 0, i32* %1, align 4
  store i64 0, i64* %10, align 8
  %11 = getelementptr inbounds [100 x i8], [100 x i8]* %2, i64 0, i64 0
  %12 = call i32 (i8*, ...) @__isoc99_scanf(i8* getelementptr inbounds ([7 x i8], [7 x i8]* @.str, i64 0, i64 0), i32* %4, i8* %11, i32* %5)
  %13 = getelementptr inbounds [100 x i8], [100 x i8]* %2, i64 0, i64 0
  %14 = call i64 @strlen(i8* %13) #3
  %15 = trunc i64 %14 to i32
  store i32 %15, i32* %9, align 4
  store i32 0, i32* %7, align 4
  br label %16

16:                                               ; preds = %103, %0
  %17 = load i32, i32* %7, align 4
  %18 = load i32, i32* %9, align 4
  %19 = icmp slt i32 %17, %18
  br i1 %19, label %20, label %106

20:                                               ; preds = %16
  %21 = load i32, i32* %7, align 4
  %22 = sext i32 %21 to i64
  %23 = getelementptr inbounds [100 x i8], [100 x i8]* %2, i64 0, i64 %22
  %24 = load i8, i8* %23, align 1
  %25 = sext i8 %24 to i32
  %26 = icmp sge i32 %25, 48
  br i1 %26, label %27, label %46

27:                                               ; preds = %20
  %28 = load i32, i32* %7, align 4
  %29 = sext i32 %28 to i64
  %30 = getelementptr inbounds [100 x i8], [100 x i8]* %2, i64 0, i64 %29
  %31 = load i8, i8* %30, align 1
  %32 = sext i8 %31 to i32
  %33 = icmp sle i32 %32, 57
  br i1 %33, label %34, label %46

34:                                               ; preds = %27
  %35 = load i64, i64* %10, align 8
  %36 = load i32, i32* %4, align 4
  %37 = sext i32 %36 to i64
  %38 = mul nsw i64 %35, %37
  %39 = load i32, i32* %7, align 4
  %40 = sext i32 %39 to i64
  %41 = getelementptr inbounds [100 x i8], [100 x i8]* %2, i64 0, i64 %40
  %42 = load i8, i8* %41, align 1
  %43 = sext i8 %42 to i64
  %44 = add nsw i64 %38, %43
  %45 = sub nsw i64 %44, 48
  store i64 %45, i64* %10, align 8
  br label %102

46:                                               ; preds = %27, %20
  %47 = load i32, i32* %7, align 4
  %48 = sext i32 %47 to i64
  %49 = getelementptr inbounds [100 x i8], [100 x i8]* %2, i64 0, i64 %48
  %50 = load i8, i8* %49, align 1
  %51 = sext i8 %50 to i32
  %52 = icmp sge i32 %51, 97
  br i1 %52, label %53, label %73

53:                                               ; preds = %46
  %54 = load i32, i32* %7, align 4
  %55 = sext i32 %54 to i64
  %56 = getelementptr inbounds [100 x i8], [100 x i8]* %2, i64 0, i64 %55
  %57 = load i8, i8* %56, align 1
  %58 = sext i8 %57 to i32
  %59 = icmp sle i32 %58, 122
  br i1 %59, label %60, label %73

60:                                               ; preds = %53
  %61 = load i64, i64* %10, align 8
  %62 = load i32, i32* %4, align 4
  %63 = sext i32 %62 to i64
  %64 = mul nsw i64 %61, %63
  %65 = load i32, i32* %7, align 4
  %66 = sext i32 %65 to i64
  %67 = getelementptr inbounds [100 x i8], [100 x i8]* %2, i64 0, i64 %66
  %68 = load i8, i8* %67, align 1
  %69 = sext i8 %68 to i64
  %70 = add nsw i64 %64, %69
  %71 = sub nsw i64 %70, 97
  %72 = add nsw i64 %71, 10
  store i64 %72, i64* %10, align 8
  br label %101

73:                                               ; preds = %53, %46
  %74 = load i32, i32* %7, align 4
  %75 = sext i32 %74 to i64
  %76 = getelementptr inbounds [100 x i8], [100 x i8]* %2, i64 0, i64 %75
  %77 = load i8, i8* %76, align 1
  %78 = sext i8 %77 to i32
  %79 = icmp sge i32 %78, 65
  br i1 %79, label %80, label %100

80:                                               ; preds = %73
  %81 = load i32, i32* %7, align 4
  %82 = sext i32 %81 to i64
  %83 = getelementptr inbounds [100 x i8], [100 x i8]* %2, i64 0, i64 %82
  %84 = load i8, i8* %83, align 1
  %85 = sext i8 %84 to i32
  %86 = icmp sle i32 %85, 90
  br i1 %86, label %87, label %100

87:                                               ; preds = %80
  %88 = load i64, i64* %10, align 8
  %89 = load i32, i32* %4, align 4
  %90 = sext i32 %89 to i64
  %91 = mul nsw i64 %88, %90
  %92 = load i32, i32* %7, align 4
  %93 = sext i32 %92 to i64
  %94 = getelementptr inbounds [100 x i8], [100 x i8]* %2, i64 0, i64 %93
  %95 = load i8, i8* %94, align 1
  %96 = sext i8 %95 to i64
  %97 = add nsw i64 %91, %96
  %98 = sub nsw i64 %97, 65
  %99 = add nsw i64 %98, 10
  store i64 %99, i64* %10, align 8
  br label %100

100:                                              ; preds = %87, %80, %73
  br label %101

101:                                              ; preds = %100, %60
  br label %102

102:                                              ; preds = %101, %34
  br label %103

103:                                              ; preds = %102
  %104 = load i32, i32* %7, align 4
  %105 = add nsw i32 %104, 1
  store i32 %105, i32* %7, align 4
  br label %16

106:                                              ; preds = %16
  store i32 0, i32* %7, align 4
  br label %107

107:                                              ; preds = %125, %106
  %108 = load i64, i64* %10, align 8
  %109 = load i32, i32* %5, align 4
  %110 = sext i32 %109 to i64
  %111 = icmp sge i64 %108, %110
  br i1 %111, label %112, label %128

112:                                              ; preds = %107
  %113 = load i64, i64* %10, align 8
  %114 = load i32, i32* %5, align 4
  %115 = sext i32 %114 to i64
  %116 = srem i64 %113, %115
  %117 = trunc i64 %116 to i32
  %118 = load i32, i32* %7, align 4
  %119 = sext i32 %118 to i64
  %120 = getelementptr inbounds [100 x i32], [100 x i32]* %6, i64 0, i64 %119
  store i32 %117, i32* %120, align 4
  %121 = load i64, i64* %10, align 8
  %122 = load i32, i32* %5, align 4
  %123 = sext i32 %122 to i64
  %124 = sdiv i64 %121, %123
  store i64 %124, i64* %10, align 8
  br label %125

125:                                              ; preds = %112
  %126 = load i32, i32* %7, align 4
  %127 = add nsw i32 %126, 1
  store i32 %127, i32* %7, align 4
  br label %107

128:                                              ; preds = %107
  %129 = load i64, i64* %10, align 8
  %130 = load i32, i32* %5, align 4
  %131 = sext i32 %130 to i64
  %132 = srem i64 %129, %131
  %133 = trunc i64 %132 to i32
  %134 = load i32, i32* %7, align 4
  %135 = sext i32 %134 to i64
  %136 = getelementptr inbounds [100 x i32], [100 x i32]* %6, i64 0, i64 %135
  store i32 %133, i32* %136, align 4
  %137 = load i32, i32* %7, align 4
  store i32 %137, i32* %8, align 4
  store i32 0, i32* %7, align 4
  br label %138

138:                                              ; preds = %170, %128
  %139 = load i32, i32* %7, align 4
  %140 = load i32, i32* %8, align 4
  %141 = icmp sle i32 %139, %140
  br i1 %141, label %142, label %173

142:                                              ; preds = %138
  %143 = load i32, i32* %7, align 4
  %144 = sext i32 %143 to i64
  %145 = getelementptr inbounds [100 x i32], [100 x i32]* %6, i64 0, i64 %144
  %146 = load i32, i32* %145, align 4
  %147 = icmp sge i32 %146, 10
  br i1 %147, label %148, label %159

148:                                              ; preds = %142
  %149 = load i32, i32* %7, align 4
  %150 = sext i32 %149 to i64
  %151 = getelementptr inbounds [100 x i32], [100 x i32]* %6, i64 0, i64 %150
  %152 = load i32, i32* %151, align 4
  %153 = sub nsw i32 %152, 10
  %154 = add nsw i32 %153, 65
  %155 = trunc i32 %154 to i8
  %156 = load i32, i32* %7, align 4
  %157 = sext i32 %156 to i64
  %158 = getelementptr inbounds [100 x i8], [100 x i8]* %3, i64 0, i64 %157
  store i8 %155, i8* %158, align 1
  br label %169

159:                                              ; preds = %142
  %160 = load i32, i32* %7, align 4
  %161 = sext i32 %160 to i64
  %162 = getelementptr inbounds [100 x i32], [100 x i32]* %6, i64 0, i64 %161
  %163 = load i32, i32* %162, align 4
  %164 = add nsw i32 %163, 48
  %165 = trunc i32 %164 to i8
  %166 = load i32, i32* %7, align 4
  %167 = sext i32 %166 to i64
  %168 = getelementptr inbounds [100 x i8], [100 x i8]* %3, i64 0, i64 %167
  store i8 %165, i8* %168, align 1
  br label %169

169:                                              ; preds = %159, %148
  br label %170

170:                                              ; preds = %169
  %171 = load i32, i32* %7, align 4
  %172 = add nsw i32 %171, 1
  store i32 %172, i32* %7, align 4
  br label %138

173:                                              ; preds = %138
  %174 = load i32, i32* %8, align 4
  store i32 %174, i32* %7, align 4
  br label %175

175:                                              ; preds = %185, %173
  %176 = load i32, i32* %7, align 4
  %177 = icmp sge i32 %176, 0
  br i1 %177, label %178, label %188

178:                                              ; preds = %175
  %179 = load i32, i32* %7, align 4
  %180 = sext i32 %179 to i64
  %181 = getelementptr inbounds [100 x i8], [100 x i8]* %3, i64 0, i64 %180
  %182 = load i8, i8* %181, align 1
  %183 = sext i8 %182 to i32
  %184 = call i32 (i8*, ...) @printf(i8* getelementptr inbounds ([3 x i8], [3 x i8]* @.str.1, i64 0, i64 0), i32 %183)
  br label %185

185:                                              ; preds = %178
  %186 = load i32, i32* %7, align 4
  %187 = add nsw i32 %186, -1
  store i32 %187, i32* %7, align 4
  br label %175

188:                                              ; preds = %175
  %189 = call i32 (i8*, ...) @printf(i8* getelementptr inbounds ([2 x i8], [2 x i8]* @.str.2, i64 0, i64 0))
  ret i32 0
}

declare dso_local i32 @__isoc99_scanf(i8*, ...) #1

; Function Attrs: nounwind readonly
declare dso_local i64 @strlen(i8*) #2

declare dso_local i32 @printf(i8*, ...) #1


!llvm.module.flags = !{!0}
!llvm.ident = !{!1}

!0 = !{i32 1, !"wchar_size", i32 4}
!1 = !{!"clang version 10.0.0-4ubuntu1 "}
